target datalayout = "e-m:e-p270:32:32-p271:32:32-p272:64:64-i64:64-i128:128-f80:128-n8:16:32:64-S128"
target triple = "x86_64-pc-linux-gnu"

%struct.FullTransactionId = type { i64 }
%struct.gistxlogPageDelete = type { %struct.FullTransactionId, i16 }

; Function Attrs: nounwind uwtable
define dso_local i64 @gistXLogPageDelete(i32 noundef %0, i64 %1, i32 noundef %2, i16 noundef zeroext %3) #0 {
  %5 = alloca %struct.FullTransactionId, align 8
  %6 = alloca i32, align 4
  %7 = alloca i32, align 4
  %8 = alloca i16, align 2
  %9 = alloca %struct.gistxlogPageDelete, align 8
  %10 = alloca i64, align 8
  %11 = getelementptr inbounds nuw %struct.FullTransactionId, ptr %5, i32 0, i32 0
  store i64 %1, ptr %11, align 8
  store i32 %0, ptr %6, align 4
  store i32 %2, ptr %7, align 4
  store i16 %3, ptr %8, align 2
  call void @llvm.lifetime.start.p0(i64 16, ptr %9) #6
  call void @llvm.lifetime.start.p0(i64 8, ptr %10) #6
  %12 = getelementptr inbounds nuw %struct.gistxlogPageDelete, ptr %9, i32 0, i32 0
  call void @llvm.memcpy.p0.p0.i64(ptr align 8 %12, ptr align 8 %5, i64 8, i1 false)
  %13 = load i16, ptr %8, align 2
  %14 = getelementptr inbounds nuw %struct.gistxlogPageDelete, ptr %9, i32 0, i32 1
  store i16 %13, ptr %14, align 8
  call void @XLogBeginInsert()
  call void @XLogRegisterData(ptr noundef %9, i32 noundef 10)
  %15 = load i32, ptr %6, align 4
  call void @XLogRegisterBuffer(i8 noundef zeroext 0, i32 noundef %15, i8 noundef zeroext 8)
  %16 = load i32, ptr %7, align 4
  call void @XLogRegisterBuffer(i8 noundef zeroext 1, i32 noundef %16, i8 noundef zeroext 8)
  %17 = call i64 @XLogInsert(i8 noundef zeroext 14, i8 noundef zeroext 96)
  store i64 %17, ptr %10, align 8
  %18 = load i64, ptr %10, align 8
  call void @llvm.lifetime.end.p0(i64 8, ptr %10) #6
  call void @llvm.lifetime.end.p0(i64 16, ptr %9) #6
  ret i64 %18
}