; Function Attrs: nounwind uwtable
define dso_local i64 @gistXLogPageDelete(i32 noundef %0, i64 %1, i32 noundef %2, i16 noundef zeroext %3) local_unnamed_addr #0 {
  %5 = alloca %struct.gistxlogPageDelete, align 8
  call void @llvm.lifetime.start.p0(i64 16, ptr nonnull %5) #6
  store i64 %1, ptr %5, align 8
  %6 = getelementptr inbounds nuw i8, ptr %5, i64 8
  store i16 %3, ptr %6, align 8
  tail call void @XLogBeginInsert() #6
  call void @XLogRegisterData(ptr noundef nonnull %5, i32 noundef 10) #6
  call void @XLogRegisterBuffer(i8 noundef zeroext 0, i32 noundef %0, i8 noundef zeroext 8) #6
  call void @XLogRegisterBuffer(i8 noundef zeroext 1, i32 noundef %2, i8 noundef zeroext 8) #6
  %7 = call i64 @XLogInsert(i8 noundef zeroext 14, i8 noundef zeroext 96) #6
  call void @llvm.lifetime.end.p0(i64 16, ptr nonnull %5) #6
  ret i64 %7
}